(i__main__
Score
p1
(dp2
S'count'
p3
I16
sS'score'
p4
(dp5
I0
(lp6
I0
aI0
aI6
aI0
aI6
aI0
aI0
aI0
aI6
aI0
aI0
aI0
aI0
aI0
aI0
aI0
asI1
(lp7
I0
aI0
aI0
aI0
aI0
aI0
aI0
aI6
aI0
aI0
aI0
aI0
aI6
aI0
aI6
aI0
asI2
(lp8
I6
aI0
aI0
aI0
aI6
aI0
aI0
aI0
aI6
aI0
aI0
aI0
aI0
aI0
aI0
aI0
asI3
(lp9
I0
aI0
aI0
aI0
aI0
aI0
aI6
aI0
aI0
aI0
aI6
aI0
aI0
aI0
aI0
aI6
asI4
(lp10
I6
aI0
aI6
aI0
aI0
aI0
aI0
aI0
aI6
aI0
aI0
aI0
aI0
aI0
aI0
aI0
asI5
(lp11
I0
aI0
aI0
aI0
aI0
aI0
aI0
aI0
aI0
aI6
aI0
aI6
aI0
aI6
aI0
aI0
asI6
(lp12
I0
aI0
aI0
aI6
aI0
aI0
aI0
aI0
aI0
aI0
aI6
aI0
aI0
aI0
aI0
aI6
asI7
(lp13
I0
aI6
aI0
aI0
aI0
aI0
aI0
aI0
aI0
aI0
aI0
aI0
aI6
aI0
aI6
aI0
asI8
(lp14
I6
aI0
aI6
aI0
aI6
aI0
aI0
aI0
aI0
aI0
aI0
aI0
aI0
aI0
aI0
aI0
asI9
(lp15
I0
aI0
aI0
aI0
aI0
aI6
aI0
aI0
aI0
aI0
aI0
aI6
aI0
aI6
aI0
aI0
asI10
(lp16
I0
aI0
aI0
aI6
aI0
aI0
aI6
aI0
aI0
aI0
aI0
aI0
aI0
aI0
aI0
aI6
asI11
(lp17
I0
aI0
aI0
aI0
aI0
aI6
aI0
aI0
aI0
aI6
aI0
aI0
aI0
aI6
aI0
aI0
asI12
(lp18
I0
aI6
aI0
aI0
aI0
aI0
aI0
aI6
aI0
aI0
aI0
aI0
aI0
aI0
aI6
aI0
asI13
(lp19
I0
aI0
aI0
aI0
aI0
aI6
aI0
aI0
aI0
aI6
aI0
aI6
aI0
aI0
aI0
aI0
asI14
(lp20
I0
aI6
aI0
aI0
aI0
aI0
aI0
aI6
aI0
aI0
aI0
aI0
aI6
aI0
aI0
aI0
asI15
(lp21
I0
aI0
aI0
aI6
aI0
aI0
aI6
aI0
aI0
aI0
aI6
aI0
aI0
aI0
aI0
aI0
assS'future'
p22
(lp23
(dp24
I0
(lp25
I0
aI0
aI9
aI0
aI9
aI0
aI0
aI0
aI9
aI0
aI0
aI0
aI0
aI0
aI0
aI0
asI1
(lp26
I0
aI0
aI0
aI0
aI0
aI0
aI0
aI9
aI0
aI0
aI0
aI0
aI9
aI0
aI9
aI0
asI2
(lp27
I9
aI0
aI0
aI0
aI9
aI0
aI0
aI0
aI9
aI0
aI0
aI0
aI0
aI0
aI0
aI0
asI3
(lp28
I0
aI0
aI0
aI0
aI0
aI0
aI9
aI0
aI0
aI0
aI9
aI0
aI0
aI0
aI0
aI9
asI4
(lp29
I9
aI0
aI9
aI0
aI0
aI0
aI0
aI0
aI9
aI0
aI0
aI0
aI0
aI0
aI0
aI0
asI5
(lp30
I0
aI0
aI0
aI0
aI0
aI0
aI0
aI0
aI0
aI9
aI0
aI9
aI0
aI9
aI0
aI0
asI6
(lp31
I0
aI0
aI0
aI9
aI0
aI0
aI0
aI0
aI0
aI0
aI9
aI0
aI0
aI0
aI0
aI9
asI7
(lp32
I0
aI9
aI0
aI0
aI0
aI0
aI0
aI0
aI0
aI0
aI0
aI0
aI9
aI0
aI9
aI0
asI8
(lp33
I9
aI0
aI9
aI0
aI9
aI0
aI0
aI0
aI0
aI0
aI0
aI0
aI0
aI0
aI0
aI0
asI9
(lp34
I0
aI0
aI0
aI0
aI0
aI9
aI0
aI0
aI0
aI0
aI0
aI9
aI0
aI9
aI0
aI0
asI10
(lp35
I0
aI0
aI0
aI9
aI0
aI0
aI9
aI0
aI0
aI0
aI0
aI0
aI0
aI0
aI0
aI9
asI11
(lp36
I0
aI0
aI0
aI0
aI0
aI9
aI0
aI0
aI0
aI9
aI0
aI0
aI0
aI9
aI0
aI0
asI12
(lp37
I0
aI9
aI0
aI0
aI0
aI0
aI0
aI9
aI0
aI0
aI0
aI0
aI0
aI0
aI9
aI0
asI13
(lp38
I0
aI0
aI0
aI0
aI0
aI9
aI0
aI0
aI0
aI9
aI0
aI9
aI0
aI0
aI0
aI0
asI14
(lp39
I0
aI9
aI0
aI0
aI0
aI0
aI0
aI9
aI0
aI0
aI0
aI0
aI9
aI0
aI0
aI0
asI15
(lp40
I0
aI0
aI0
aI9
aI0
aI0
aI9
aI0
aI0
aI0
aI9
aI0
aI0
aI0
aI0
aI0
asa(dp41
I0
(lp42
I0
aI0
aI0
aI0
aI0
aI0
aI0
aI0
aI0
aI0
aI0
aI0
aI0
aI0
aI0
aI0
asI1
(lp43
I0
aI0
aI0
aI0
aI0
aI0
aI0
aI0
aI0
aI0
aI0
aI0
aI0
aI0
aI0
aI0
asI2
(lp44
I0
aI0
aI0
aI0
aI0
aI0
aI0
aI0
aI0
aI0
aI0
aI0
aI0
aI0
aI0
aI0
asI3
(lp45
I0
aI0
aI0
aI0
aI0
aI0
aI0
aI0
aI0
aI0
aI0
aI0
aI0
aI0
aI0
aI0
asI4
(lp46
I0
aI0
aI0
aI0
aI0
aI0
aI0
aI0
aI0
aI0
aI0
aI0
aI0
aI0
aI0
aI0
asI5
(lp47
I0
aI0
aI0
aI0
aI0
aI0
aI0
aI0
aI0
aI0
aI0
aI0
aI0
aI0
aI0
aI0
asI6
(lp48
I0
aI0
aI0
aI0
aI0
aI0
aI0
aI0
aI0
aI0
aI0
aI0
aI0
aI0
aI0
aI0
asI7
(lp49
I0
aI0
aI0
aI0
aI0
aI0
aI0
aI0
aI0
aI0
aI0
aI0
aI0
aI0
aI0
aI0
asI8
(lp50
I0
aI0
aI0
aI0
aI0
aI0
aI0
aI0
aI0
aI0
aI0
aI0
aI0
aI0
aI0
aI0
asI9
(lp51
I0
aI0
aI0
aI0
aI0
aI0
aI0
aI0
aI0
aI0
aI0
aI0
aI0
aI0
aI0
aI0
asI10
(lp52
I0
aI0
aI0
aI0
aI0
aI0
aI0
aI0
aI0
aI0
aI0
aI0
aI0
aI0
aI0
aI0
asI11
(lp53
I0
aI0
aI0
aI0
aI0
aI0
aI0
aI0
aI0
aI0
aI0
aI0
aI0
aI0
aI0
aI0
asI12
(lp54
I0
aI0
aI0
aI0
aI0
aI0
aI0
aI0
aI0
aI0
aI0
aI0
aI0
aI0
aI0
aI0
asI13
(lp55
I0
aI0
aI0
aI0
aI0
aI0
aI0
aI0
aI0
aI0
aI0
aI0
aI0
aI0
aI0
aI0
asI14
(lp56
I0
aI0
aI0
aI0
aI0
aI0
aI0
aI0
aI0
aI0
aI0
aI0
aI0
aI0
aI0
aI0
asI15
(lp57
I0
aI0
aI0
aI0
aI0
aI0
aI0
aI0
aI0
aI0
aI0
aI0
aI0
aI0
aI0
aI0
asa(dp58
I0
(lp59
I0
aI0
aI7
aI0
aI7
aI0
aI0
aI0
aI7
aI0
aI0
aI0
aI0
aI0
aI0
aI0
asI1
(lp60
I0
aI0
aI0
aI0
aI0
aI0
aI0
aI7
aI0
aI0
aI0
aI0
aI7
aI0
aI7
aI0
asI2
(lp61
I7
aI0
aI0
aI0
aI7
aI0
aI0
aI0
aI7
aI0
aI0
aI0
aI0
aI0
aI0
aI0
asI3
(lp62
I0
aI0
aI0
aI0
aI0
aI0
aI7
aI0
aI0
aI0
aI7
aI0
aI0
aI0
aI0
aI7
asI4
(lp63
I7
aI0
aI7
aI0
aI0
aI0
aI0
aI0
aI7
aI0
aI0
aI0
aI0
aI0
aI0
aI0
asI5
(lp64
I0
aI0
aI0
aI0
aI0
aI0
aI0
aI0
aI0
aI7
aI0
aI7
aI0
aI7
aI0
aI0
asI6
(lp65
I0
aI0
aI0
aI7
aI0
aI0
aI0
aI0
aI0
aI0
aI7
aI0
aI0
aI0
aI0
aI7
asI7
(lp66
I0
aI7
aI0
aI0
aI0
aI0
aI0
aI0
aI0
aI0
aI0
aI0
aI7
aI0
aI7
aI0
asI8
(lp67
I7
aI0
aI7
aI0
aI7
aI0
aI0
aI0
aI0
aI0
aI0
aI0
aI0
aI0
aI0
aI0
asI9
(lp68
I0
aI0
aI0
aI0
aI0
aI7
aI0
aI0
aI0
aI0
aI0
aI7
aI0
aI7
aI0
aI0
asI10
(lp69
I0
aI0
aI0
aI7
aI0
aI0
aI7
aI0
aI0
aI0
aI0
aI0
aI0
aI0
aI0
aI7
asI11
(lp70
I0
aI0
aI0
aI0
aI0
aI7
aI0
aI0
aI0
aI7
aI0
aI0
aI0
aI7
aI0
aI0
asI12
(lp71
I0
aI7
aI0
aI0
aI0
aI0
aI0
aI7
aI0
aI0
aI0
aI0
aI0
aI0
aI7
aI0
asI13
(lp72
I0
aI0
aI0
aI0
aI0
aI7
aI0
aI0
aI0
aI7
aI0
aI7
aI0
aI0
aI0
aI0
asI14
(lp73
I0
aI7
aI0
aI0
aI0
aI0
aI0
aI7
aI0
aI0
aI0
aI0
aI7
aI0
aI0
aI0
asI15
(lp74
I0
aI0
aI0
aI7
aI0
aI0
aI7
aI0
aI0
aI0
aI7
aI0
aI0
aI0
aI0
aI0
asasS'names'
p75
(S'mihai'
S'djenet'
S'russell'
S'lily'
S'tracy'
S'saurabh'
S'jen-yi'
S'sarah'
S'eileen'
S'john'
S'viktor'
S'ram'
S'carmen'
S'samuel'
S'shiaulou'
S'yuxiang'
tp76
sS'rounds'
p77
I-2
sS'history'
p78
(lp79
(dp80
I0
(lp81
I0
aI0
aI0
aI0
aI0
aI0
aI0
aI0
aI0
aI0
aI0
aI0
aI0
aI0
aI0
aI0
asI1
(lp82
I0
aI0
aI0
aI0
aI0
aI0
aI0
aI0
aI0
aI0
aI0
aI0
aI0
aI0
aI0
aI0
asI2
(lp83
I0
aI0
aI0
aI0
aI0
aI0
aI0
aI0
aI0
aI0
aI0
aI0
aI0
aI0
aI0
aI0
asI3
(lp84
I0
aI0
aI0
aI0
aI0
aI0
aI0
aI0
aI0
aI0
aI0
aI0
aI0
aI0
aI0
aI0
asI4
(lp85
I0
aI0
aI0
aI0
aI0
aI0
aI0
aI0
aI0
aI0
aI0
aI0
aI0
aI0
aI0
aI0
asI5
(lp86
I0
aI0
aI0
aI0
aI0
aI0
aI0
aI0
aI0
aI0
aI0
aI0
aI0
aI0
aI0
aI0
asI6
(lp87
I0
aI0
aI0
aI0
aI0
aI0
aI0
aI0
aI0
aI0
aI0
aI0
aI0
aI0
aI0
aI0
asI7
(lp88
I0
aI0
aI0
aI0
aI0
aI0
aI0
aI0
aI0
aI0
aI0
aI0
aI0
aI0
aI0
aI0
asI8
(lp89
I0
aI0
aI0
aI0
aI0
aI0
aI0
aI0
aI0
aI0
aI0
aI0
aI0
aI0
aI0
aI0
asI9
(lp90
I0
aI0
aI0
aI0
aI0
aI0
aI0
aI0
aI0
aI0
aI0
aI0
aI0
aI0
aI0
aI0
asI10
(lp91
I0
aI0
aI0
aI0
aI0
aI0
aI0
aI0
aI0
aI0
aI0
aI0
aI0
aI0
aI0
aI0
asI11
(lp92
I0
aI0
aI0
aI0
aI0
aI0
aI0
aI0
aI0
aI0
aI0
aI0
aI0
aI0
aI0
aI0
asI12
(lp93
I0
aI0
aI0
aI0
aI0
aI0
aI0
aI0
aI0
aI0
aI0
aI0
aI0
aI0
aI0
aI0
asI13
(lp94
I0
aI0
aI0
aI0
aI0
aI0
aI0
aI0
aI0
aI0
aI0
aI0
aI0
aI0
aI0
aI0
asI14
(lp95
I0
aI0
aI0
aI0
aI0
aI0
aI0
aI0
aI0
aI0
aI0
aI0
aI0
aI0
aI0
aI0
asI15
(lp96
I0
aI0
aI0
aI0
aI0
aI0
aI0
aI0
aI0
aI0
aI0
aI0
aI0
aI0
aI0
aI0
asa(dp97
I0
(lp98
I0
aI0
aI1
aI0
aI1
aI0
aI0
aI0
aI1
aI0
aI0
aI0
aI0
aI0
aI0
aI0
asI1
(lp99
I0
aI0
aI0
aI0
aI0
aI0
aI0
aI1
aI0
aI0
aI0
aI0
aI1
aI0
aI1
aI0
asI2
(lp100
I1
aI0
aI0
aI0
aI1
aI0
aI0
aI0
aI1
aI0
aI0
aI0
aI0
aI0
aI0
aI0
asI3
(lp101
I0
aI0
aI0
aI0
aI0
aI0
aI1
aI0
aI0
aI0
aI1
aI0
aI0
aI0
aI0
aI1
asI4
(lp102
I1
aI0
aI1
aI0
aI0
aI0
aI0
aI0
aI1
aI0
aI0
aI0
aI0
aI0
aI0
aI0
asI5
(lp103
I0
aI0
aI0
aI0
aI0
aI0
aI0
aI0
aI0
aI1
aI0
aI1
aI0
aI1
aI0
aI0
asI6
(lp104
I0
aI0
aI0
aI1
aI0
aI0
aI0
aI0
aI0
aI0
aI1
aI0
aI0
aI0
aI0
aI1
asI7
(lp105
I0
aI1
aI0
aI0
aI0
aI0
aI0
aI0
aI0
aI0
aI0
aI0
aI1
aI0
aI1
aI0
asI8
(lp106
I1
aI0
aI1
aI0
aI1
aI0
aI0
aI0
aI0
aI0
aI0
aI0
aI0
aI0
aI0
aI0
asI9
(lp107
I0
aI0
aI0
aI0
aI0
aI1
aI0
aI0
aI0
aI0
aI0
aI1
aI0
aI1
aI0
aI0
asI10
(lp108
I0
aI0
aI0
aI1
aI0
aI0
aI1
aI0
aI0
aI0
aI0
aI0
aI0
aI0
aI0
aI1
asI11
(lp109
I0
aI0
aI0
aI0
aI0
aI1
aI0
aI0
aI0
aI1
aI0
aI0
aI0
aI1
aI0
aI0
asI12
(lp110
I0
aI1
aI0
aI0
aI0
aI0
aI0
aI1
aI0
aI0
aI0
aI0
aI0
aI0
aI1
aI0
asI13
(lp111
I0
aI0
aI0
aI0
aI0
aI1
aI0
aI0
aI0
aI1
aI0
aI1
aI0
aI0
aI0
aI0
asI14
(lp112
I0
aI1
aI0
aI0
aI0
aI0
aI0
aI1
aI0
aI0
aI0
aI0
aI1
aI0
aI0
aI0
asI15
(lp113
I0
aI0
aI0
aI1
aI0
aI0
aI1
aI0
aI0
aI0
aI1
aI0
aI0
aI0
aI0
aI0
asa(dp114
I0
(lp115
I0
aI0
aI2
aI0
aI2
aI0
aI0
aI0
aI2
aI0
aI0
aI0
aI0
aI0
aI0
aI0
asI1
(lp116
I0
aI0
aI0
aI0
aI0
aI0
aI0
aI2
aI0
aI0
aI0
aI0
aI2
aI0
aI2
aI0
asI2
(lp117
I2
aI0
aI0
aI0
aI2
aI0
aI0
aI0
aI2
aI0
aI0
aI0
aI0
aI0
aI0
aI0
asI3
(lp118
I0
aI0
aI0
aI0
aI0
aI0
aI2
aI0
aI0
aI0
aI2
aI0
aI0
aI0
aI0
aI2
asI4
(lp119
I2
aI0
aI2
aI0
aI0
aI0
aI0
aI0
aI2
aI0
aI0
aI0
aI0
aI0
aI0
aI0
asI5
(lp120
I0
aI0
aI0
aI0
aI0
aI0
aI0
aI0
aI0
aI2
aI0
aI2
aI0
aI2
aI0
aI0
asI6
(lp121
I0
aI0
aI0
aI2
aI0
aI0
aI0
aI0
aI0
aI0
aI2
aI0
aI0
aI0
aI0
aI2
asI7
(lp122
I0
aI2
aI0
aI0
aI0
aI0
aI0
aI0
aI0
aI0
aI0
aI0
aI2
aI0
aI2
aI0
asI8
(lp123
I2
aI0
aI2
aI0
aI2
aI0
aI0
aI0
aI0
aI0
aI0
aI0
aI0
aI0
aI0
aI0
asI9
(lp124
I0
aI0
aI0
aI0
aI0
aI2
aI0
aI0
aI0
aI0
aI0
aI2
aI0
aI2
aI0
aI0
asI10
(lp125
I0
aI0
aI0
aI2
aI0
aI0
aI2
aI0
aI0
aI0
aI0
aI0
aI0
aI0
aI0
aI2
asI11
(lp126
I0
aI0
aI0
aI0
aI0
aI2
aI0
aI0
aI0
aI2
aI0
aI0
aI0
aI2
aI0
aI0
asI12
(lp127
I0
aI2
aI0
aI0
aI0
aI0
aI0
aI2
aI0
aI0
aI0
aI0
aI0
aI0
aI2
aI0
asI13
(lp128
I0
aI0
aI0
aI0
aI0
aI2
aI0
aI0
aI0
aI2
aI0
aI2
aI0
aI0
aI0
aI0
asI14
(lp129
I0
aI2
aI0
aI0
aI0
aI0
aI0
aI2
aI0
aI0
aI0
aI0
aI2
aI0
aI0
aI0
asI15
(lp130
I0
aI0
aI0
aI2
aI0
aI0
aI2
aI0
aI0
aI0
aI2
aI0
aI0
aI0
aI0
aI0
asa(dp131
I0
(lp132
I0
aI0
aI3
aI0
aI3
aI0
aI0
aI0
aI3
aI0
aI0
aI0
aI0
aI0
aI0
aI0
asI1
(lp133
I0
aI0
aI0
aI0
aI0
aI0
aI0
aI3
aI0
aI0
aI0
aI0
aI3
aI0
aI3
aI0
asI2
(lp134
I3
aI0
aI0
aI0
aI3
aI0
aI0
aI0
aI3
aI0
aI0
aI0
aI0
aI0
aI0
aI0
asI3
(lp135
I0
aI0
aI0
aI0
aI0
aI0
aI3
aI0
aI0
aI0
aI3
aI0
aI0
aI0
aI0
aI3
asI4
(lp136
I3
aI0
aI3
aI0
aI0
aI0
aI0
aI0
aI3
aI0
aI0
aI0
aI0
aI0
aI0
aI0
asI5
(lp137
I0
aI0
aI0
aI0
aI0
aI0
aI0
aI0
aI0
aI3
aI0
aI3
aI0
aI3
aI0
aI0
asI6
(lp138
I0
aI0
aI0
aI3
aI0
aI0
aI0
aI0
aI0
aI0
aI3
aI0
aI0
aI0
aI0
aI3
asI7
(lp139
I0
aI3
aI0
aI0
aI0
aI0
aI0
aI0
aI0
aI0
aI0
aI0
aI3
aI0
aI3
aI0
asI8
(lp140
I3
aI0
aI3
aI0
aI3
aI0
aI0
aI0
aI0
aI0
aI0
aI0
aI0
aI0
aI0
aI0
asI9
(lp141
I0
aI0
aI0
aI0
aI0
aI3
aI0
aI0
aI0
aI0
aI0
aI3
aI0
aI3
aI0
aI0
asI10
(lp142
I0
aI0
aI0
aI3
aI0
aI0
aI3
aI0
aI0
aI0
aI0
aI0
aI0
aI0
aI0
aI3
asI11
(lp143
I0
aI0
aI0
aI0
aI0
aI3
aI0
aI0
aI0
aI3
aI0
aI0
aI0
aI3
aI0
aI0
asI12
(lp144
I0
aI3
aI0
aI0
aI0
aI0
aI0
aI3
aI0
aI0
aI0
aI0
aI0
aI0
aI3
aI0
asI13
(lp145
I0
aI0
aI0
aI0
aI0
aI3
aI0
aI0
aI0
aI3
aI0
aI3
aI0
aI0
aI0
aI0
asI14
(lp146
I0
aI3
aI0
aI0
aI0
aI0
aI0
aI3
aI0
aI0
aI0
aI0
aI3
aI0
aI0
aI0
asI15
(lp147
I0
aI0
aI0
aI3
aI0
aI0
aI3
aI0
aI0
aI0
aI3
aI0
aI0
aI0
aI0
aI0
asa(dp148
I0
(lp149
I0
aI0
aI4
aI0
aI4
aI0
aI0
aI0
aI4
aI0
aI0
aI0
aI0
aI0
aI0
aI0
asI1
(lp150
I0
aI0
aI0
aI0
aI0
aI0
aI0
aI4
aI0
aI0
aI0
aI0
aI4
aI0
aI4
aI0
asI2
(lp151
I4
aI0
aI0
aI0
aI4
aI0
aI0
aI0
aI4
aI0
aI0
aI0
aI0
aI0
aI0
aI0
asI3
(lp152
I0
aI0
aI0
aI0
aI0
aI0
aI4
aI0
aI0
aI0
aI4
aI0
aI0
aI0
aI0
aI4
asI4
(lp153
I4
aI0
aI4
aI0
aI0
aI0
aI0
aI0
aI4
aI0
aI0
aI0
aI0
aI0
aI0
aI0
asI5
(lp154
I0
aI0
aI0
aI0
aI0
aI0
aI0
aI0
aI0
aI4
aI0
aI4
aI0
aI4
aI0
aI0
asI6
(lp155
I0
aI0
aI0
aI4
aI0
aI0
aI0
aI0
aI0
aI0
aI4
aI0
aI0
aI0
aI0
aI4
asI7
(lp156
I0
aI4
aI0
aI0
aI0
aI0
aI0
aI0
aI0
aI0
aI0
aI0
aI4
aI0
aI4
aI0
asI8
(lp157
I4
aI0
aI4
aI0
aI4
aI0
aI0
aI0
aI0
aI0
aI0
aI0
aI0
aI0
aI0
aI0
asI9
(lp158
I0
aI0
aI0
aI0
aI0
aI4
aI0
aI0
aI0
aI0
aI0
aI4
aI0
aI4
aI0
aI0
asI10
(lp159
I0
aI0
aI0
aI4
aI0
aI0
aI4
aI0
aI0
aI0
aI0
aI0
aI0
aI0
aI0
aI4
asI11
(lp160
I0
aI0
aI0
aI0
aI0
aI4
aI0
aI0
aI0
aI4
aI0
aI0
aI0
aI4
aI0
aI0
asI12
(lp161
I0
aI4
aI0
aI0
aI0
aI0
aI0
aI4
aI0
aI0
aI0
aI0
aI0
aI0
aI4
aI0
asI13
(lp162
I0
aI0
aI0
aI0
aI0
aI4
aI0
aI0
aI0
aI4
aI0
aI4
aI0
aI0
aI0
aI0
asI14
(lp163
I0
aI4
aI0
aI0
aI0
aI0
aI0
aI4
aI0
aI0
aI0
aI0
aI4
aI0
aI0
aI0
asI15
(lp164
I0
aI0
aI0
aI4
aI0
aI0
aI4
aI0
aI0
aI0
aI4
aI0
aI0
aI0
aI0
aI0
asa(dp165
I0
(lp166
I0
aI0
aI5
aI0
aI5
aI0
aI0
aI0
aI5
aI0
aI0
aI0
aI0
aI0
aI0
aI0
asI1
(lp167
I0
aI0
aI0
aI0
aI0
aI0
aI0
aI5
aI0
aI0
aI0
aI0
aI5
aI0
aI5
aI0
asI2
(lp168
I5
aI0
aI0
aI0
aI5
aI0
aI0
aI0
aI5
aI0
aI0
aI0
aI0
aI0
aI0
aI0
asI3
(lp169
I0
aI0
aI0
aI0
aI0
aI0
aI5
aI0
aI0
aI0
aI5
aI0
aI0
aI0
aI0
aI5
asI4
(lp170
I5
aI0
aI5
aI0
aI0
aI0
aI0
aI0
aI5
aI0
aI0
aI0
aI0
aI0
aI0
aI0
asI5
(lp171
I0
aI0
aI0
aI0
aI0
aI0
aI0
aI0
aI0
aI5
aI0
aI5
aI0
aI5
aI0
aI0
asI6
(lp172
I0
aI0
aI0
aI5
aI0
aI0
aI0
aI0
aI0
aI0
aI5
aI0
aI0
aI0
aI0
aI5
asI7
(lp173
I0
aI5
aI0
aI0
aI0
aI0
aI0
aI0
aI0
aI0
aI0
aI0
aI5
aI0
aI5
aI0
asI8
(lp174
I5
aI0
aI5
aI0
aI5
aI0
aI0
aI0
aI0
aI0
aI0
aI0
aI0
aI0
aI0
aI0
asI9
(lp175
I0
aI0
aI0
aI0
aI0
aI5
aI0
aI0
aI0
aI0
aI0
aI5
aI0
aI5
aI0
aI0
asI10
(lp176
I0
aI0
aI0
aI5
aI0
aI0
aI5
aI0
aI0
aI0
aI0
aI0
aI0
aI0
aI0
aI5
asI11
(lp177
I0
aI0
aI0
aI0
aI0
aI5
aI0
aI0
aI0
aI5
aI0
aI0
aI0
aI5
aI0
aI0
asI12
(lp178
I0
aI5
aI0
aI0
aI0
aI0
aI0
aI5
aI0
aI0
aI0
aI0
aI0
aI0
aI5
aI0
asI13
(lp179
I0
aI0
aI0
aI0
aI0
aI5
aI0
aI0
aI0
aI5
aI0
aI5
aI0
aI0
aI0
aI0
asI14
(lp180
I0
aI5
aI0
aI0
aI0
aI0
aI0
aI5
aI0
aI0
aI0
aI0
aI5
aI0
aI0
aI0
asI15
(lp181
I0
aI0
aI0
aI5
aI0
aI0
aI5
aI0
aI0
aI0
aI5
aI0
aI0
aI0
aI0
aI0
asasb.